(dp0
Vengine
p1
S'pdflatex'
p2
sVpackages
p3
c__builtin__
set
p4
((lp5
Vgeometry
p6
aVhyperref
p7
aVhelvet
p8
aVgraphicx
p9
aVparskip
p10
atp11
Rp12
sVfiles_with_guttermarks
p13
g4
((lp14
S'bsc-sample.tex'
p15
aV/Users/lalit/Dropbox/Thesis/writing/./bsc-sample.tex
p16
aV/Users/lalit/Dropbox/Thesis/writing/bsc-sample.tex
p17
atp18
Rp19
sVsynctex
p20
I01
s.