(dp0
Vengine
p1
S'pdflatex'
p2
sVpackages
p3
c__builtin__
set
p4
((lp5
Vhyperref
p6
aVhelvet
p7
aVgeometry
p8
aVshellesc
p9
aVpdfpages
p10
aVamsmath
p11
aVamssymb
p12
aVlipsum
p13
aVyhmath
p14
aVcalc
p15
aVgraphicx
p16
aVsubcaption
p17
aVparskip
p18
atp19
Rp20
sVfiles_with_guttermarks
p21
g4
((lp22
V/Users/lalit/Dropbox/Thesis/report/acknowledgement/acknowledgement.tex
p23
aV/Users/lalit/Dropbox/Thesis/report/backgroundConcepts/backgroundConcepts.tex
p24
aV/Users/lalit/Dropbox/Thesis/report/./backgroundConcepts/backgroundConcepts.tex
p25
aV/Users/lalit/Dropbox/Thesis/report/description/description.tex
p26
aV/Users/lalit/Dropbox/Thesis/report/./description/description.tex
p27
aV/Users/lalit/Dropbox/Thesis/report/introduction/introduction.tex
p28
aS'main.tex'
p29
aV/Users/lalit/Dropbox/Thesis/report/./main.tex
p30
atp31
Rp32
sVsynctex
p33
I01
s.