(dp0
Vengine
p1
S'pdflatex'
p2
sVpackages
p3
c__builtin__
set
p4
((lp5
Vhyperref
p6
aVhelvet
p7
aVgeometry
p8
aVshellesc
p9
aVpdfpages
p10
aVmultirow
p11
aVamssymb
p12
aVlipsum
p13
aVamsmath
p14
aVyhmath
p15
aVcalc
p16
aVgraphicx
p17
aVsubcaption
p18
aVparskip
p19
atp20
Rp21
sVfiles_with_guttermarks
p22
g4
((lp23
V/Users/lalit/Dropbox/Thesis/report/acknowledgement/acknowledgement.tex
p24
aV/Users/lalit/Dropbox/Thesis/report/./results/results.tex
p25
aV/Users/lalit/Dropbox/Thesis/report/backgroundConcepts/backgroundConcepts.tex
p26
aV/Users/lalit/Dropbox/Thesis/report/./backgroundConcepts/backgroundConcepts.tex
p27
aV/Users/lalit/Dropbox/Thesis/report/description/description.tex
p28
aV/Users/lalit/Dropbox/Thesis/report/./description/description.tex
p29
aV/Users/lalit/Dropbox/Thesis/report/introduction/introduction.tex
p30
aS'main.tex'
p31
aV/Users/lalit/Dropbox/Thesis/report/./main.tex
p32
atp33
Rp34
sVsynctex
p35
I01
s.