(dp0
Vengine
p1
S'pdflatex'
p2
sVpackages
p3
c__builtin__
set
p4
((lp5
Vgeometry
p6
aVhyperref
p7
aVhelvet
p8
aVgraphicx
p9
aVparskip
p10
atp11
Rp12
sVfiles_with_guttermarks
p13
g4
((lp14
V/usr/local/texlive/2016/texmf-dist/tex/latex/hyperref/hyperref.sty
p15
aV/Users/lalit/Dropbox/Thesis/writing/coverPage/coverPage.tex
p16
aS'main.tex'
p17
aV/Users/lalit/Dropbox/Thesis/writing/./main.tex
p18
aV/Users/lalit/Dropbox/Thesis/writing/main.tex
p19
aV/Users/lalit/Dropbox/Thesis/writing/acknowledgement/acknowledgement.tex
p20
atp21
Rp22
sVsynctex
p23
I01
s.